; Function Attrs: nounwind uwtable
define range(i32 0, 2) i32 @X509v3_addr_add_range(ptr noundef %0, i32 noundef %1, ptr noundef captures(address_is_null) %2, ptr noundef %3, ptr noundef %4) local_unnamed_addr #1 {
  %6 = alloca ptr, align 8
  %7 = tail call fastcc ptr @make_IPAddressFamily(ptr noundef %0, i32 noundef %1, ptr noundef %2)
  %8 = icmp eq ptr %7, null
  br i1 %8, label %make_prefix_or_range.exit.thread, label %9

9:                                                ; preds = %5
  %10 = getelementptr inbounds nuw i8, ptr %7, i64 8
  %11 = load ptr, ptr %10, align 8, !tbaa !17
  %12 = icmp eq ptr %11, null
  br i1 %12, label %make_prefix_or_range.exit.thread, label %13

13:                                               ; preds = %9
  %14 = load i32, ptr %11, align 8, !tbaa !18
  switch i32 %14, label %.thread23.i [
    i32 0, label %15
    i32 1, label %18
  ]

15:                                               ; preds = %13
  %16 = getelementptr inbounds nuw i8, ptr %11, i64 8
  %17 = load ptr, ptr %16, align 8, !tbaa !16
  %.not.i = icmp eq ptr %17, null
  br i1 %.not.i, label %.thread23.i, label %make_prefix_or_range.exit.thread

18:                                               ; preds = %13
  %19 = getelementptr inbounds nuw i8, ptr %11, i64 8
  %20 = load ptr, ptr %19, align 8, !tbaa !16
  %.not22.i = icmp eq ptr %20, null
  br i1 %.not22.i, label %.thread23.i, label %29

.thread23.i:                                      ; preds = %18, %15, %13
  %21 = tail call ptr @OPENSSL_sk_new_null() #15
  %22 = icmp eq ptr %21, null
  br i1 %22, label %make_prefix_or_range.exit.thread, label %23

23:                                               ; preds = %.thread23.i
  switch i32 %1, label %26 [
    i32 1, label %.sink.split.i
    i32 2, label %24
  ]

24:                                               ; preds = %23
  br label %.sink.split.i

.sink.split.i:                                    ; preds = %24, %23
  %v6IPAddressOrRange_cmp.sink.i = phi ptr [ @v6IPAddressOrRange_cmp, %24 ], [ @v4IPAddressOrRange_cmp, %23 ]
  %25 = tail call ptr @OPENSSL_sk_set_cmp_func(ptr noundef nonnull %21, ptr noundef nonnull %v6IPAddressOrRange_cmp.sink.i) #15
  br label %26

26:                                               ; preds = %.sink.split.i, %23
  %27 = load ptr, ptr %10, align 8, !tbaa !17
  store i32 1, ptr %27, align 8, !tbaa !18
  %28 = getelementptr inbounds nuw i8, ptr %27, i64 8
  store ptr %21, ptr %28, align 8, !tbaa !16
  br label %29

make_prefix_or_range.exit.thread:                 ; preds = %15, %9, %5, %.thread23.i
  call void @llvm.lifetime.start.p0(i64 8, ptr nonnull %6) #15
  br label %35

29:                                               ; preds = %26, %18
  %.018.i = phi ptr [ %21, %26 ], [ %20, %18 ]
  call void @llvm.lifetime.start.p0(i64 8, ptr nonnull %6) #15
  %switch.selectcmp.i = icmp eq i32 %1, 2
  %switch.select.i = select i1 %switch.selectcmp.i, i32 16, i32 0
  %switch.selectcmp2.i = icmp eq i32 %1, 1
  %switch.select3.i = select i1 %switch.selectcmp2.i, i32 4, i32 %switch.select.i
  %30 = call fastcc i32 @make_addressRange(ptr noundef %6, ptr noundef %3, ptr noundef %4, i32 noundef %switch.select3.i)
  %.not = icmp eq i32 %30, 0
  br i1 %.not, label %35, label %31

31:                                               ; preds = %29
  %32 = load ptr, ptr %6, align 8, !tbaa !23
  %33 = tail call i32 @OPENSSL_sk_push(ptr noundef nonnull %.018.i, ptr noundef %32) #15
  %.not10 = icmp eq i32 %33, 0
  br i1 %.not10, label %34, label %35

34:                                               ; preds = %31
  tail call void @ASN1_item_free(ptr noundef %32, ptr noundef nonnull @IPAddressOrRange_it.local_it) #15
  br label %35

35:                                               ; preds = %make_prefix_or_range.exit.thread, %31, %29, %34
  %.0 = phi i32 [ 0, %34 ], [ 0, %29 ], [ 1, %31 ], [ 0, %make_prefix_or_range.exit.thread ]
  call void @llvm.lifetime.end.p0(i64 8, ptr nonnull %6) #15
  ret i32 %.0
}